; Function Attrs: mustprogress uwtable
define void @_ZN8facebook5velox9functions11jsonExtractEN5folly5RangeIPKcEES6_(ptr noalias sret(%"class.folly::Optional") align 8 %agg.result, ptr %json.coerce0, ptr %json.coerce1, ptr %path.coerce0, ptr %path.coerce1) local_unnamed_addr #2 personality ptr @__gxx_personality_v0 {
entry:
  %ref.tmp = alloca %"struct.folly::dynamic", align 8
  %call = invoke fastcc noundef nonnull align 8 dereferenceable(24) ptr @_ZN8facebook5velox9functions12_GLOBAL__N_113JsonExtractor11getInstanceEN5folly5RangeIPKcEE(ptr %path.coerce0, ptr %path.coerce1)
          to label %invoke.cont unwind label %lpad

invoke.cont:                                      ; preds = %entry
  invoke void @_ZN5folly9parseJsonENS_5RangeIPKcEE(ptr nonnull sret(%"struct.folly::dynamic") align 8 %ref.tmp, ptr %json.coerce0, ptr %json.coerce1)
          to label %invoke.cont2 unwind label %lpad

invoke.cont2:                                     ; preds = %invoke.cont
  invoke fastcc void @_ZN8facebook5velox9functions12_GLOBAL__N_113JsonExtractor7extractERKN5folly7dynamicE(ptr noalias align 8 %agg.result, ptr noundef nonnull align 8 dereferenceable(24) %call, ptr noundef nonnull align 8 dereferenceable(40) %ref.tmp)
          to label %invoke.cont4 unwind label %lpad3

invoke.cont4:                                     ; preds = %invoke.cont2
  call void @_ZN5folly7dynamic7destroyEv(ptr noundef nonnull align 8 dereferenceable(40) %ref.tmp) #1
  br label %return

lpad:                                             ; preds = %invoke.cont, %entry
  %0 = landingpad { ptr, i32 }
          catch ptr @_ZTIN5folly4json11parse_errorE
          catch ptr @_ZTIN5folly15ConversionErrorE
  br label %catch.dispatch

lpad3:                                            ; preds = %invoke.cont2
  %1 = landingpad { ptr, i32 }
          cleanup
          catch ptr @_ZTIN5folly4json11parse_errorE
          catch ptr @_ZTIN5folly15ConversionErrorE
  call void @_ZN5folly7dynamic7destroyEv(ptr noundef nonnull align 8 dereferenceable(40) %ref.tmp) #1
  br label %catch.dispatch

catch.dispatch:                                   ; preds = %lpad3, %lpad
  %.pn = phi { ptr, i32 } [ %1, %lpad3 ], [ %0, %lpad ]
  %exn.slot.0 = extractvalue { ptr, i32 } %.pn, 0
  %ehselector.slot.0 = extractvalue { ptr, i32 } %.pn, 1
  %2 = call i32 @llvm.eh.typeid.for(ptr nonnull @_ZTIN5folly4json11parse_errorE) #1
  %matches = icmp eq i32 %ehselector.slot.0, %2
  br i1 %matches, label %try.cont, label %catch.fallthrough

try.cont:                                         ; preds = %catch.dispatch, %catch.fallthrough
  %3 = call ptr @__cxa_begin_catch(ptr %exn.slot.0) #1
  call void @__cxa_end_catch()
  %hasValue.i.i = getelementptr inbounds i8, ptr %agg.result, i64 40
  store i8 0, ptr %hasValue.i.i, align 8
  br label %return

catch.fallthrough:                                ; preds = %catch.dispatch
  %4 = call i32 @llvm.eh.typeid.for(ptr nonnull @_ZTIN5folly15ConversionErrorE) #1
  %matches5 = icmp eq i32 %ehselector.slot.0, %4
  br i1 %matches5, label %try.cont, label %eh.resume

return:                                           ; preds = %try.cont, %invoke.cont4
  ret void

eh.resume:                                        ; preds = %catch.fallthrough
  resume { ptr, i32 } %.pn
}